Certificate:
    Data:
        Version: 3 (0x2)
        Serial Number:
            dd:5a:67:1c:cf:ef:26:1c
    Signature Algorithm: sha1WithRSAEncryption
        Issuer: C=US, ST=Missouri, O=Siri Proxy, CN=SiriProxyCA
        Validity
            Not Before: Jul  2 16:40:23 2013 GMT
            Not After : Jul  1 16:40:23 2016 GMT
        Subject: C=US, ST=Missouri, O=Siri Proxy, CN=SiriProxyCA
        Subject Public Key Info:
            Public Key Algorithm: rsaEncryption
                Public-Key: (1024 bit)
                Modulus:
                    00:c2:03:e6:41:ea:e1:0b:43:e3:f7:a7:df:9d:b4:
                    22:e3:9c:97:a1:cf:ad:0c:1c:2c:cd:27:09:f9:85:
                    45:f4:1e:5e:34:e2:30:ce:bd:22:6a:57:1f:c3:c7:
                    33:68:dc:c5:96:71:09:44:c3:11:f0:df:c4:c1:d0:
                    73:a7:88:19:b2:36:99:6f:27:eb:af:cf:9e:a4:fe:
                    db:6b:33:04:c9:43:c4:14:db:fe:1a:82:2d:57:44:
                    5f:28:de:d6:1e:6c:ec:7a:68:35:4e:88:26:01:3f:
                    cc:83:be:32:8d:48:26:d5:d0:13:9d:ba:0e:ec:a6:
                    75:56:33:7d:3d:9e:49:54:c9
                Exponent: 65537 (0x10001)
        X509v3 extensions:
            X509v3 Subject Key Identifier:
                D2:C3:E3:85:5E:11:72:CB:D3:DE:58:F0:03:D7:88:7F:BE:F7:7D:A5
            X509v3 Authority Key Identifier:
                keyid:D2:C3:E3:85:5E:11:72:CB:D3:DE:58:F0:03:D7:88:7F:BE:F7:7D:A5

            X509v3 Basic Constraints:
                CA:TRUE
    Signature Algorithm: sha1WithRSAEncryption
         12:d7:6f:97:76:4f:a2:00:b9:a7:a9:bb:db:18:61:2f:9f:c4:
         cb:d3:af:85:8f:34:87:6b:f3:3a:99:cd:8a:d4:ae:40:c0:6e:
         4e:46:b9:db:dc:60:c1:ac:eb:b1:31:c2:86:08:72:6f:a7:d1:
         cc:46:30:63:82:ae:d2:62:65:a5:9e:f9:b7:2c:06:fa:fc:c9:
         de:98:df:09:9e:f0:5e:0c:a6:65:fb:59:ad:1d:2a:d3:3b:41:
         21:4f:85:03:48:5f:80:81:63:3d:9c:14:35:4e:f9:52:64:22:
         8e:6a:d8:fe:fe:4e:2a:f8:b4:89:56:bd:0b:e5:a3:31:e9:09:
         2f:7a
-----BEGIN CERTIFICATE-----
MIICZDCCAc2gAwIBAgIJAN1aZxzP7yYcMA0GCSqGSIb3DQEBBQUAMEsxCzAJBgNV
BAYTAlVTMREwDwYDVQQIDAhNaXNzb3VyaTETMBEGA1UECgwKU2lyaSBQcm94eTEU
MBIGA1UEAwwLU2lyaVByb3h5Q0EwHhcNMTMwNzAyMTY0MDIzWhcNMTYwNzAxMTY0
MDIzWjBLMQswCQYDVQQGEwJVUzERMA8GA1UECAwITWlzc291cmkxEzARBgNVBAoM
ClNpcmkgUHJveHkxFDASBgNVBAMMC1NpcmlQcm94eUNBMIGfMA0GCSqGSIb3DQEB
AQUAA4GNADCBiQKBgQDCA+ZB6uELQ+P3p9+dtCLjnJehz60MHCzNJwn5hUX0Hl40
4jDOvSJqVx/DxzNo3MWWcQlEwxHw38TB0HOniBmyNplvJ+uvz56k/ttrMwTJQ8QU
2/4agi1XRF8o3tYebOx6aDVOiCYBP8yDvjKNSCbV0BOdug7spnVWM309nklUyQID
AQABo1AwTjAdBgNVHQ4EFgQU0sPjhV4RcsvT3ljwA9eIf773faUwHwYDVR0jBBgw
FoAU0sPjhV4RcsvT3ljwA9eIf773faUwDAYDVR0TBAUwAwEB/zANBgkqhkiG9w0B
AQUFAAOBgQAS12+Xdk+iALmnqbvbGGEvn8TL06+FjzSHa/M6mc2K1K5AwG5ORrnb
3GDBrOuxMcKGCHJvp9HMRjBjgq7SYmWlnvm3LAb6/MnemN8JnvBeDKZl+1mtHSrT
O0EhT4UDSF+AgWM9nBQ1TvlSZCKOatj+/k4q+LSJVr0L5aMx6Qkveg==
-----END CERTIFICATE-----